; Function Attrs: nounwind uwtable
define internal fastcc noalias nonnull ptr @_init_l_Lean_Elab_Tactic_BVDecide_Frontend_Normalize_initFn____x40_Lean_Elab_Tactic_BVDecide_Frontend_Normalize_Enums___hyg_3445____lambda__1___closed__9() unnamed_addr #1 {
  %1 = load ptr, ptr @l_Lean_Elab_Tactic_BVDecide_Frontend_Normalize_initFn____x40_Lean_Elab_Tactic_BVDecide_Frontend_Normalize_Enums___hyg_3445____lambda__1___closed__1, align 8, !tbaa !11
  %2 = load i64, ptr @l_Lean_Elab_Tactic_BVDecide_Frontend_Normalize_initFn____x40_Lean_Elab_Tactic_BVDecide_Frontend_Normalize_Enums___hyg_3445____lambda__1___closed__2, align 8, !tbaa !9
  %3 = load ptr, ptr @l_Lean_Elab_Tactic_BVDecide_Frontend_Normalize_initFn____x40_Lean_Elab_Tactic_BVDecide_Frontend_Normalize_Enums___hyg_3445____lambda__1___closed__8, align 8, !tbaa !11
  %4 = load ptr, ptr @l_Lean_Meta_withLocalDecls___at___private_Lean_Elab_Tactic_BVDecide_Frontend_Normalize_Enums_0__Lean_Elab_Tactic_BVDecide_Frontend_Normalize_getMatchEqCondForAux_handleSimpleEnum___spec__9___rarg___closed__1, align 8, !tbaa !11
  tail call void @lean_inc_heartbeat() #7
  %5 = tail call noalias ptr @mi_malloc_small(i64 noundef 80) #7
  %6 = icmp eq ptr %5, null
  br i1 %6, label %7, label %lean_alloc_ctor.exit

7:                                                ; preds = %0
  tail call void @lean_internal_panic_out_of_memory() #6
  unreachable

lean_alloc_ctor.exit:                             ; preds = %0
  %8 = getelementptr inbounds nuw i8, ptr %5, i64 4
  %9 = getelementptr inbounds nuw i8, ptr %5, i64 72
  store i64 0, ptr %9, align 8, !tbaa !9
  store i32 1, ptr %5, align 4, !tbaa !4
  store i32 458832, ptr %8, align 4
  %10 = getelementptr inbounds nuw i8, ptr %5, i64 8
  store ptr %1, ptr %10, align 8, !tbaa !11
  %11 = getelementptr inbounds nuw i8, ptr %5, i64 16
  store ptr inttoptr (i64 1 to ptr), ptr %11, align 8, !tbaa !11
  %12 = getelementptr inbounds nuw i8, ptr %5, i64 24
  store ptr %3, ptr %12, align 8, !tbaa !11
  %13 = getelementptr inbounds nuw i8, ptr %5, i64 32
  store ptr %4, ptr %13, align 8, !tbaa !11
  %14 = getelementptr inbounds nuw i8, ptr %5, i64 40
  store ptr inttoptr (i64 1 to ptr), ptr %14, align 8, !tbaa !11
  %15 = getelementptr inbounds nuw i8, ptr %5, i64 48
  store ptr inttoptr (i64 1 to ptr), ptr %15, align 8, !tbaa !11
  %16 = getelementptr inbounds nuw i8, ptr %5, i64 56
  store ptr inttoptr (i64 1 to ptr), ptr %16, align 8, !tbaa !11
  %17 = getelementptr inbounds nuw i8, ptr %5, i64 64
  store i64 %2, ptr %17, align 8, !tbaa !9
  ret ptr %5
}